target datalayout = "e-m:e-p270:32:32-p271:32:32-p272:64:64-i64:64-i128:128-f80:128-n8:16:32:64-S128"
target triple = "x86_64-pc-linux-gnu"

%struct.ARKodeMemRec = type { ptr, double, ptr, i32, i32, double, double, ptr, i32, double, ptr, i32, i32, ptr, ptr, i32, ptr, ptr, i32, ptr, ptr, ptr, ptr, ptr, ptr, ptr, ptr, ptr, ptr, ptr, ptr, ptr, ptr, ptr, i32, ptr, ptr, i32, ptr, i32, ptr, ptr, ptr, ptr, ptr, ptr, ptr, ptr, ptr, ptr, ptr, ptr, ptr, ptr, ptr, ptr, ptr, ptr, ptr, ptr, ptr, ptr, ptr, ptr, ptr, ptr, i32, ptr, ptr, ptr, ptr, ptr, ptr, ptr, i32, ptr, ptr, ptr, i32, ptr, ptr, ptr, ptr, ptr, ptr, ptr, i32, i32, i32, i32, double, double, double, double, double, double, double, double, double, double, i32, ptr, i64, i32, i32, i32, i32, i64, i64, i32, i64, i64, i64, i64, i64, i64, i64, double, double, double, double, double, i32, double, double, i32, i32, i32, i32, i32, i32, i32, i32, ptr, i32, ptr, ptr, ptr, ptr, i32, i32, i32 }
%struct.ARKodeHAdaptMemRec = type { double, double, double, double, i32, double, double, double, double, double, double, i32, i32, i32, i32, ptr, i32, ptr, ptr, i64, i64 }

@.str = private unnamed_addr constant [115 x i8] c"generated/home/dtcxzyw/WorkSpace/Projects/compilers/llvm-opt-benchmark/bench/sundials/sundials/src/arkode/arkode.c\00", align 1
@__func__.arkCheckConvergence = private unnamed_addr constant [20 x i8] c"arkCheckConvergence\00", align 1
@.str.137 = private unnamed_addr constant [43 x i8] c"Adaptivity memory structure not allocated.\00", align 1

; Function Attrs: nounwind uwtable
define i32 @arkCheckConvergence(ptr noundef %0, ptr noundef %1, ptr noundef %2) #0 {
  %4 = alloca i32, align 4
  %5 = alloca ptr, align 8
  %6 = alloca ptr, align 8
  %7 = alloca ptr, align 8
  %8 = alloca ptr, align 8
  %9 = alloca i32, align 4
  store ptr %0, ptr %5, align 8, !tbaa !11
  store ptr %1, ptr %6, align 8, !tbaa !138
  store ptr %2, ptr %7, align 8, !tbaa !138
  call void @llvm.lifetime.start.p0(i64 8, ptr %8) #10
  %10 = load ptr, ptr %6, align 8, !tbaa !138
  %11 = load i32, ptr %10, align 4, !tbaa !38
  %12 = icmp eq i32 %11, 0
  br i1 %12, label %13, label %14

13:                                               ; preds = %3
  store i32 0, ptr %4, align 4
  store i32 1, ptr %9, align 4
  br label %99

14:                                               ; preds = %3
  %15 = load ptr, ptr %6, align 8, !tbaa !138
  %16 = load i32, ptr %15, align 4, !tbaa !38
  %17 = icmp eq i32 %16, 11
  br i1 %17, label %18, label %19

18:                                               ; preds = %14
  store i32 11, ptr %4, align 4
  store i32 1, ptr %9, align 4
  br label %99

19:                                               ; preds = %14
  %20 = load ptr, ptr %5, align 8, !tbaa !11
  %21 = getelementptr inbounds nuw %struct.ARKodeMemRec, ptr %20, i32 0, i32 110
  %22 = load i64, ptr %21, align 8, !tbaa !63
  %23 = add nsw i64 %22, 1
  store i64 %23, ptr %21, align 8, !tbaa !63
  %24 = load ptr, ptr %5, align 8, !tbaa !11
  %25 = getelementptr inbounds nuw %struct.ARKodeMemRec, ptr %24, i32 0, i32 100
  %26 = load i32, ptr %25, align 8, !tbaa !114
  %27 = icmp ne i32 %26, 0
  br i1 %27, label %28, label %29

28:                                               ; preds = %19
  store i32 -4, ptr %4, align 4
  store i32 1, ptr %9, align 4
  br label %99

29:                                               ; preds = %19
  %30 = load ptr, ptr %5, align 8, !tbaa !11
  %31 = getelementptr inbounds nuw %struct.ARKodeMemRec, ptr %30, i32 0, i32 101
  %32 = load ptr, ptr %31, align 8, !tbaa !70
  %33 = icmp eq ptr %32, null
  br i1 %33, label %34, label %36

34:                                               ; preds = %29
  %35 = load ptr, ptr %5, align 8, !tbaa !11
  call void (ptr, i32, i32, ptr, ptr, ptr, ...) @arkProcessError(ptr noundef %35, i32 noundef -21, i32 noundef 3142, ptr noundef @__func__.arkCheckConvergence, ptr noundef @.str, ptr noundef @.str.137)
  store i32 -21, ptr %4, align 4
  store i32 1, ptr %9, align 4
  br label %99

36:                                               ; preds = %29
  %37 = load ptr, ptr %5, align 8, !tbaa !11
  %38 = getelementptr inbounds nuw %struct.ARKodeMemRec, ptr %37, i32 0, i32 101
  %39 = load ptr, ptr %38, align 8, !tbaa !70
  store ptr %39, ptr %8, align 8, !tbaa !139
  %40 = load ptr, ptr %6, align 8, !tbaa !138
  %41 = load i32, ptr %40, align 4, !tbaa !38
  %42 = icmp slt i32 %41, 0
  br i1 %42, label %43, label %59

43:                                               ; preds = %36
  %44 = load ptr, ptr %6, align 8, !tbaa !138
  %45 = load i32, ptr %44, align 4, !tbaa !38
  %46 = icmp eq i32 %45, -6
  br i1 %46, label %47, label %48

47:                                               ; preds = %43
  store i32 -6, ptr %4, align 4
  store i32 1, ptr %9, align 4
  br label %99

48:                                               ; preds = %43
  %49 = load ptr, ptr %6, align 8, !tbaa !138
  %50 = load i32, ptr %49, align 4, !tbaa !38
  %51 = icmp eq i32 %50, -7
  br i1 %51, label %52, label %53

52:                                               ; preds = %48
  store i32 -7, ptr %4, align 4
  store i32 1, ptr %9, align 4
  br label %99

53:                                               ; preds = %48
  %54 = load ptr, ptr %6, align 8, !tbaa !138
  %55 = load i32, ptr %54, align 4, !tbaa !38
  %56 = icmp eq i32 %55, -8
  br i1 %56, label %57, label %58

57:                                               ; preds = %53
  store i32 -8, ptr %4, align 4
  store i32 1, ptr %9, align 4
  br label %99

58:                                               ; preds = %53
  store i32 -32, ptr %4, align 4
  store i32 1, ptr %9, align 4
  br label %99

59:                                               ; preds = %36
  %60 = load ptr, ptr %7, align 8, !tbaa !138
  %61 = load i32, ptr %60, align 4, !tbaa !38
  %62 = add nsw i32 %61, 1
  store i32 %62, ptr %60, align 4, !tbaa !38
  %63 = load ptr, ptr %8, align 8, !tbaa !139
  %64 = getelementptr inbounds nuw %struct.ARKodeHAdaptMemRec, ptr %63, i32 0, i32 0
  store double 1.000000e+00, ptr %64, align 8, !tbaa !135
  %65 = load ptr, ptr %7, align 8, !tbaa !138
  %66 = load i32, ptr %65, align 4, !tbaa !38
  %67 = load ptr, ptr %5, align 8, !tbaa !11
  %68 = getelementptr inbounds nuw %struct.ARKodeMemRec, ptr %67, i32 0, i32 106
  %69 = load i32, ptr %68, align 4, !tbaa !140
  %70 = icmp eq i32 %66, %69
  br i1 %70, label %81, label %71

71:                                               ; preds = %59
  %72 = load ptr, ptr %5, align 8, !tbaa !11
  %73 = getelementptr inbounds nuw %struct.ARKodeMemRec, ptr %72, i32 0, i32 92
  %74 = load double, ptr %73, align 8, !tbaa !29
  %75 = call double @llvm.fabs.f64(double %74)
  %76 = load ptr, ptr %5, align 8, !tbaa !11
  %77 = getelementptr inbounds nuw %struct.ARKodeMemRec, ptr %76, i32 0, i32 93
  %78 = load double, ptr %77, align 8, !tbaa !121
  %79 = fmul double %78, 0x3FF000010C6F7A0B
  %80 = fcmp ole double %75, %79
  br i1 %80, label %81, label %92

81:                                               ; preds = %71, %59
  %82 = load ptr, ptr %6, align 8, !tbaa !138
  %83 = load i32, ptr %82, align 4, !tbaa !38
  %84 = icmp eq i32 %83, 4
  br i1 %84, label %85, label %86

85:                                               ; preds = %81
  store i32 -4, ptr %4, align 4
  store i32 1, ptr %9, align 4
  br label %99

86:                                               ; preds = %81
  %87 = load ptr, ptr %6, align 8, !tbaa !138
  %88 = load i32, ptr %87, align 4, !tbaa !38
  %89 = icmp eq i32 %88, 9
  br i1 %89, label %90, label %91

90:                                               ; preds = %86
  store i32 -10, ptr %4, align 4
  store i32 1, ptr %9, align 4
  br label %99

91:                                               ; preds = %86
  br label %92

92:                                               ; preds = %91, %71
  %93 = load ptr, ptr %8, align 8, !tbaa !139
  %94 = getelementptr inbounds nuw %struct.ARKodeHAdaptMemRec, ptr %93, i32 0, i32 5
  %95 = load double, ptr %94, align 8, !tbaa !141
  %96 = load ptr, ptr %5, align 8, !tbaa !11
  %97 = getelementptr inbounds nuw %struct.ARKodeMemRec, ptr %96, i32 0, i32 97
  store double %95, ptr %97, align 8, !tbaa !24
  %98 = load ptr, ptr %6, align 8, !tbaa !138
  store i32 7, ptr %98, align 4, !tbaa !38
  store i32 3, ptr %4, align 4
  store i32 1, ptr %9, align 4
  br label %99

99:                                               ; preds = %92, %90, %85, %58, %57, %52, %47, %34, %28, %18, %13
  call void @llvm.lifetime.end.p0(i64 8, ptr %8) #10
  %100 = load i32, ptr %4, align 4
  ret i32 %100
}