; Function Attrs: nounwind uwtable
define range(i32 -32, 12) i32 @arkCheckConvergence(ptr noundef captures(address_is_null) %0, ptr noundef captures(none) %1, ptr noundef captures(none) %2) local_unnamed_addr #0 {
  %4 = load i32, ptr %1, align 4, !tbaa !115
  switch i32 %4, label %5 [
    i32 0, label %switch.lookup
    i32 11, label %switch.lookup
  ]

5:                                                ; preds = %3
  %6 = getelementptr inbounds nuw i8, ptr %0, i64 832
  %7 = load i64, ptr %6, align 8, !tbaa !123
  %8 = add nsw i64 %7, 1
  store i64 %8, ptr %6, align 8, !tbaa !123
  %9 = getelementptr inbounds nuw i8, ptr %0, i64 768
  %10 = load i32, ptr %9, align 8, !tbaa !117
  %.not = icmp eq i32 %10, 0
  br i1 %.not, label %11, label %switch.lookup

11:                                               ; preds = %5
  %12 = getelementptr inbounds nuw i8, ptr %0, i64 776
  %13 = load ptr, ptr %12, align 8, !tbaa !78
  %14 = icmp eq ptr %13, null
  br i1 %14, label %15, label %16

15:                                               ; preds = %11
  tail call void (ptr, i32, i32, ptr, ptr, ptr, ...) @arkProcessError(ptr noundef nonnull %0, i32 noundef -21, i32 noundef 3142, ptr noundef nonnull @__func__.arkCheckConvergence, ptr noundef nonnull @.str, ptr noundef nonnull @.str.137)
  br label %switch.lookup

16:                                               ; preds = %11
  %17 = icmp slt i32 %4, 0
  br i1 %17, label %18, label %20

18:                                               ; preds = %16
  %switch.tableidx = add nsw i32 %4, 8
  %19 = icmp ult i32 %switch.tableidx, 3
  %spec.select = select i1 %19, i32 %4, i32 -32
  br label %switch.lookup

20:                                               ; preds = %16
  %21 = load i32, ptr %2, align 4, !tbaa !115
  %22 = add nsw i32 %21, 1
  store i32 %22, ptr %2, align 4, !tbaa !115
  store double 1.000000e+00, ptr %13, align 8, !tbaa !124
  %23 = getelementptr inbounds nuw i8, ptr %0, i64 804
  %24 = load i32, ptr %23, align 4, !tbaa !125
  %25 = icmp eq i32 %22, %24
  br i1 %25, label %34, label %26

26:                                               ; preds = %20
  %27 = getelementptr inbounds nuw i8, ptr %0, i64 704
  %28 = load double, ptr %27, align 8, !tbaa !24
  %29 = tail call double @llvm.fabs.f64(double %28)
  %30 = getelementptr inbounds nuw i8, ptr %0, i64 712
  %31 = load double, ptr %30, align 8, !tbaa !126
  %32 = fmul double %31, 0x3FF000010C6F7A0B
  %33 = fcmp ugt double %29, %32
  br i1 %33, label %37, label %34

34:                                               ; preds = %26, %20
  %35 = load i32, ptr %1, align 4, !tbaa !115
  switch i32 %35, label %37 [
    i32 4, label %switch.lookup
    i32 9, label %36
  ]

36:                                               ; preds = %34
  br label %switch.lookup

37:                                               ; preds = %34, %26
  %38 = getelementptr inbounds nuw i8, ptr %13, i64 40
  %39 = load double, ptr %38, align 8, !tbaa !127
  %40 = getelementptr inbounds nuw i8, ptr %0, i64 744
  store double %39, ptr %40, align 8, !tbaa !19
  store i32 7, ptr %1, align 4, !tbaa !115
  br label %switch.lookup

switch.lookup:                                    ; preds = %18, %3, %34, %5, %3, %37, %36, %15
  %.0 = phi i32 [ -21, %15 ], [ -10, %36 ], [ 3, %37 ], [ %4, %3 ], [ -4, %5 ], [ -4, %34 ], [ %4, %3 ], [ %spec.select, %18 ]
  ret i32 %.0
}